; Function Attrs: mustprogress nofree norecurse nosync nounwind willreturn memory(argmem: write) uwtable
define void @_ZN6google8protobuf5EmptyC2EPNS0_5ArenaE(ptr nocapture noundef nonnull writeonly align 8 dereferenceable(24) %this, ptr noundef %arena) unnamed_addr #4 align 2 {
entry:
  %_internal_metadata_.i.i.i = getelementptr inbounds i8, ptr %this, i64 8
  %0 = ptrtoint ptr %arena to i64
  store i64 %0, ptr %_internal_metadata_.i.i.i, align 8
  %_cached_size_.i = getelementptr inbounds i8, ptr %this, i64 16
  store i32 0, ptr %_cached_size_.i, align 8
  store ptr getelementptr inbounds ({ [13 x ptr] }, ptr @_ZTVN6google8protobuf5EmptyE, i64 0, i32 0, i64 2), ptr %this, align 8
  ret void
}